target datalayout = "e-m:e-p270:32:32-p271:32:32-p272:64:64-i64:64-i128:128-f80:128-n8:16:32:64-S128"
target triple = "x86_64-pc-linux-gnu"

%struct.ByteStreamBE = type { ptr, i32, i32 }
%struct.LibRaw_LjpegDecompressor = type <{ %struct.ByteStreamBE, %struct.LibRaw_SOFInfo, i32, i32, i32, [4 x i8], %"class.std::vector.0", i32, [4 x i8] }>
%struct.LibRaw_SOFInfo = type <{ i32, i32, i32, i32, %"class.std::vector", i8, [7 x i8] }>
%"class.std::vector" = type { %"struct.std::_Vector_base" }
%"struct.std::_Vector_base" = type { %"struct.std::_Vector_base<LibRaw_JpegComponentInfo, std::allocator<LibRaw_JpegComponentInfo>>::_Vector_impl" }
%"struct.std::_Vector_base<LibRaw_JpegComponentInfo, std::allocator<LibRaw_JpegComponentInfo>>::_Vector_impl" = type { %"struct.std::_Vector_base<LibRaw_JpegComponentInfo, std::allocator<LibRaw_JpegComponentInfo>>::_Vector_impl_data" }
%"struct.std::_Vector_base<LibRaw_JpegComponentInfo, std::allocator<LibRaw_JpegComponentInfo>>::_Vector_impl_data" = type { ptr, ptr, ptr }
%"class.std::vector.0" = type { %"struct.std::_Vector_base.1" }
%"struct.std::_Vector_base.1" = type { %"struct.std::_Vector_base<HuffTable, std::allocator<HuffTable>>::_Vector_impl" }
%"struct.std::_Vector_base<HuffTable, std::allocator<HuffTable>>::_Vector_impl" = type { %"struct.std::_Vector_base<HuffTable, std::allocator<HuffTable>>::_Vector_impl_data" }
%"struct.std::_Vector_base<HuffTable, std::allocator<HuffTable>>::_Vector_impl_data" = type { ptr, ptr, ptr }

@_ZTIN12ByteStreamBE10ExceptionsE = linkonce_odr constant { ptr, ptr } { ptr getelementptr inbounds (ptr, ptr @_ZTVN10__cxxabiv116__enum_type_infoE, i64 2), ptr @_ZTSN12ByteStreamBE10ExceptionsE }, comdat, align 8

; Function Attrs: mustprogress uwtable
define linkonce_odr noundef zeroext i8 @_ZN12ByteStreamBE6get_u8Ev(ptr noundef nonnull align 8 dereferenceable(16) %0) #1 comdat align 2 {
  %2 = alloca ptr, align 8
  %3 = alloca i8, align 1
  store ptr %0, ptr %2, align 8, !tbaa !6
  %4 = load ptr, ptr %2, align 8
  %5 = getelementptr inbounds nuw %struct.ByteStreamBE, ptr %4, i32 0, i32 2
  %6 = load i32, ptr %5, align 4, !tbaa !11
  %7 = getelementptr inbounds nuw %struct.ByteStreamBE, ptr %4, i32 0, i32 1
  %8 = load i32, ptr %7, align 8, !tbaa !15
  %9 = icmp uge i32 %6, %8
  br i1 %9, label %10, label %12

10:                                               ; preds = %1
  %11 = call ptr @__cxa_allocate_exception(i64 4) #12
  store i32 1, ptr %11, align 16, !tbaa !99
  call void @__cxa_throw(ptr %11, ptr @_ZTIN12ByteStreamBE10ExceptionsE, ptr null) #14
  unreachable

12:                                               ; preds = %1
  call void @llvm.lifetime.start.p0(i64 1, ptr %3) #12
  %13 = getelementptr inbounds nuw %struct.ByteStreamBE, ptr %4, i32 0, i32 0
  %14 = load ptr, ptr %13, align 8, !tbaa !16
  %15 = getelementptr inbounds nuw %struct.ByteStreamBE, ptr %4, i32 0, i32 2
  %16 = load i32, ptr %15, align 4, !tbaa !11
  %17 = zext i32 %16 to i64
  %18 = getelementptr inbounds nuw i8, ptr %14, i64 %17
  %19 = load i8, ptr %18, align 1, !tbaa !17
  store i8 %19, ptr %3, align 1, !tbaa !17
  %20 = getelementptr inbounds nuw %struct.ByteStreamBE, ptr %4, i32 0, i32 2
  %21 = load i32, ptr %20, align 4, !tbaa !11
  %22 = add i32 %21, 1
  store i32 %22, ptr %20, align 4, !tbaa !11
  %23 = load i8, ptr %3, align 1, !tbaa !17
  call void @llvm.lifetime.end.p0(i64 1, ptr %3) #12
  ret i8 %23
}

; Function Attrs: mustprogress uwtable
define linkonce_odr noundef zeroext i16 @_ZN12ByteStreamBE7get_u16Ev(ptr noundef nonnull align 8 dereferenceable(16) %0) #1 comdat align 2 {
  %2 = alloca ptr, align 8
  %3 = alloca i8, align 1
  %4 = alloca i8, align 1
  store ptr %0, ptr %2, align 8, !tbaa !6
  %5 = load ptr, ptr %2, align 8
  %6 = getelementptr inbounds nuw %struct.ByteStreamBE, ptr %5, i32 0, i32 2
  %7 = load i32, ptr %6, align 4, !tbaa !11
  %8 = add i32 %7, 2
  %9 = getelementptr inbounds nuw %struct.ByteStreamBE, ptr %5, i32 0, i32 1
  %10 = load i32, ptr %9, align 8, !tbaa !15
  %11 = icmp ugt i32 %8, %10
  br i1 %11, label %12, label %14

12:                                               ; preds = %1
  %13 = call ptr @__cxa_allocate_exception(i64 4) #12
  store i32 1, ptr %13, align 16, !tbaa !99
  call void @__cxa_throw(ptr %13, ptr @_ZTIN12ByteStreamBE10ExceptionsE, ptr null) #14
  unreachable

14:                                               ; preds = %1
  call void @llvm.lifetime.start.p0(i64 1, ptr %3) #12
  %15 = getelementptr inbounds nuw %struct.ByteStreamBE, ptr %5, i32 0, i32 0
  %16 = load ptr, ptr %15, align 8, !tbaa !16
  %17 = getelementptr inbounds nuw %struct.ByteStreamBE, ptr %5, i32 0, i32 2
  %18 = load i32, ptr %17, align 4, !tbaa !11
  %19 = zext i32 %18 to i64
  %20 = getelementptr inbounds nuw i8, ptr %16, i64 %19
  %21 = load i8, ptr %20, align 1, !tbaa !17
  store i8 %21, ptr %3, align 1, !tbaa !17
  call void @llvm.lifetime.start.p0(i64 1, ptr %4) #12
  %22 = getelementptr inbounds nuw %struct.ByteStreamBE, ptr %5, i32 0, i32 0
  %23 = load ptr, ptr %22, align 8, !tbaa !16
  %24 = getelementptr inbounds nuw %struct.ByteStreamBE, ptr %5, i32 0, i32 2
  %25 = load i32, ptr %24, align 4, !tbaa !11
  %26 = add i32 %25, 1
  %27 = zext i32 %26 to i64
  %28 = getelementptr inbounds nuw i8, ptr %23, i64 %27
  %29 = load i8, ptr %28, align 1, !tbaa !17
  store i8 %29, ptr %4, align 1, !tbaa !17
  %30 = getelementptr inbounds nuw %struct.ByteStreamBE, ptr %5, i32 0, i32 2
  %31 = load i32, ptr %30, align 4, !tbaa !11
  %32 = add i32 %31, 2
  store i32 %32, ptr %30, align 4, !tbaa !11
  %33 = load i8, ptr %3, align 1, !tbaa !17
  %34 = zext i8 %33 to i32
  %35 = shl i32 %34, 8
  %36 = load i8, ptr %4, align 1, !tbaa !17
  %37 = zext i8 %36 to i32
  %38 = or i32 %35, %37
  %39 = trunc i32 %38 to i16
  call void @llvm.lifetime.end.p0(i64 1, ptr %4) #12
  call void @llvm.lifetime.end.p0(i64 1, ptr %3) #12
  ret i16 %39
}

; Function Attrs: mustprogress uwtable
define noundef zeroext i1 @_ZN24LibRaw_LjpegDecompressor9parse_dhtEPbPA17_jPA256_j(ptr noundef nonnull align 8 dereferenceable(108) %0, ptr noundef %1, ptr noundef %2, ptr noundef %3) #1 align 2 {
  %5 = alloca i1, align 1
  %6 = alloca ptr, align 8
  %7 = alloca ptr, align 8
  %8 = alloca ptr, align 8
  %9 = alloca ptr, align 8
  %10 = alloca i16, align 2
  %11 = alloca i8, align 1
  %12 = alloca i8, align 1
  %13 = alloca i8, align 1
  %14 = alloca i32, align 4
  %15 = alloca i32, align 4
  %16 = alloca i32, align 4
  %17 = alloca i32, align 4
  store ptr %0, ptr %6, align 8, !tbaa !20
  store ptr %1, ptr %7, align 8, !tbaa !62
  store ptr %2, ptr %8, align 8, !tbaa !64
  store ptr %3, ptr %9, align 8, !tbaa !64
  %18 = load ptr, ptr %6, align 8
  call void @llvm.lifetime.start.p0(i64 2, ptr %10) #12
  %19 = getelementptr inbounds nuw %struct.LibRaw_LjpegDecompressor, ptr %18, i32 0, i32 0
  %20 = call noundef zeroext i16 @_ZN12ByteStreamBE7get_u16Ev(ptr noundef nonnull align 8 dereferenceable(16) %19)
  %21 = zext i16 %20 to i32
  %22 = sub i32 %21, 2
  %23 = trunc i32 %22 to i16
  store i16 %23, ptr %10, align 2, !tbaa !66
  br label %24

24:                                               ; preds = %129, %4
  %25 = load i16, ptr %10, align 2, !tbaa !66
  %26 = zext i16 %25 to i32
  %27 = icmp sgt i32 %26, 0
  br i1 %27, label %28, label %130

28:                                               ; preds = %24
  call void @llvm.lifetime.start.p0(i64 1, ptr %11) #12
  %29 = getelementptr inbounds nuw %struct.LibRaw_LjpegDecompressor, ptr %18, i32 0, i32 0
  %30 = call noundef zeroext i8 @_ZN12ByteStreamBE6get_u8Ev(ptr noundef nonnull align 8 dereferenceable(16) %29)
  store i8 %30, ptr %11, align 1, !tbaa !17
  call void @llvm.lifetime.start.p0(i64 1, ptr %12) #12
  %31 = load i8, ptr %11, align 1, !tbaa !17
  %32 = zext i8 %31 to i32
  %33 = ashr i32 %32, 4
  %34 = trunc i32 %33 to i8
  store i8 %34, ptr %12, align 1, !tbaa !17
  call void @llvm.lifetime.start.p0(i64 1, ptr %13) #12
  %35 = load i8, ptr %11, align 1, !tbaa !17
  %36 = zext i8 %35 to i32
  %37 = and i32 %36, 15
  %38 = trunc i32 %37 to i8
  store i8 %38, ptr %13, align 1, !tbaa !17
  %39 = load i8, ptr %12, align 1, !tbaa !17
  %40 = zext i8 %39 to i32
  %41 = icmp ne i32 %40, 0
  br i1 %41, label %42, label %43

42:                                               ; preds = %28
  store i1 false, ptr %5, align 1
  store i32 1, ptr %14, align 4
  br label %127

43:                                               ; preds = %28
  %44 = load i8, ptr %13, align 1, !tbaa !17
  %45 = zext i8 %44 to i32
  %46 = icmp sgt i32 %45, 3
  br i1 %46, label %47, label %48

47:                                               ; preds = %43
  store i1 false, ptr %5, align 1
  store i32 1, ptr %14, align 4
  br label %127

48:                                               ; preds = %43
  call void @llvm.lifetime.start.p0(i64 4, ptr %15) #12
  store i32 0, ptr %15, align 4, !tbaa !23
  call void @llvm.lifetime.start.p0(i64 4, ptr %16) #12
  store i32 0, ptr %16, align 4, !tbaa !23
  br label %49

49:                                               ; preds = %76, %48
  %50 = load i32, ptr %16, align 4, !tbaa !23
  %51 = icmp slt i32 %50, 16
  br i1 %51, label %53, label %52

52:                                               ; preds = %49
  store i32 4, ptr %14, align 4
  call void @llvm.lifetime.end.p0(i64 4, ptr %16) #12
  br label %79

53:                                               ; preds = %49
  %54 = getelementptr inbounds nuw %struct.LibRaw_LjpegDecompressor, ptr %18, i32 0, i32 0
  %55 = call noundef zeroext i8 @_ZN12ByteStreamBE6get_u8Ev(ptr noundef nonnull align 8 dereferenceable(16) %54)
  %56 = zext i8 %55 to i32
  %57 = load ptr, ptr %8, align 8, !tbaa !64
  %58 = load i8, ptr %13, align 1, !tbaa !17
  %59 = zext i8 %58 to i64
  %60 = getelementptr inbounds nuw [17 x i32], ptr %57, i64 %59
  %61 = load i32, ptr %16, align 4, !tbaa !23
  %62 = add nsw i32 %61, 1
  %63 = sext i32 %62 to i64
  %64 = getelementptr inbounds [17 x i32], ptr %60, i64 0, i64 %63
  store i32 %56, ptr %64, align 4, !tbaa !23
  %65 = load ptr, ptr %8, align 8, !tbaa !64
  %66 = load i8, ptr %13, align 1, !tbaa !17
  %67 = zext i8 %66 to i64
  %68 = getelementptr inbounds nuw [17 x i32], ptr %65, i64 %67
  %69 = load i32, ptr %16, align 4, !tbaa !23
  %70 = add nsw i32 %69, 1
  %71 = sext i32 %70 to i64
  %72 = getelementptr inbounds [17 x i32], ptr %68, i64 0, i64 %71
  %73 = load i32, ptr %72, align 4, !tbaa !23
  %74 = load i32, ptr %15, align 4, !tbaa !23
  %75 = add i32 %74, %73
  store i32 %75, ptr %15, align 4, !tbaa !23
  br label %76

76:                                               ; preds = %53
  %77 = load i32, ptr %16, align 4, !tbaa !23
  %78 = add nsw i32 %77, 1
  store i32 %78, ptr %16, align 4, !tbaa !23
  br label %49, !llvm.loop !68

79:                                               ; preds = %52
  %80 = load ptr, ptr %8, align 8, !tbaa !64
  %81 = load i8, ptr %13, align 1, !tbaa !17
  %82 = zext i8 %81 to i64
  %83 = getelementptr inbounds nuw [17 x i32], ptr %80, i64 %82
  %84 = getelementptr inbounds [17 x i32], ptr %83, i64 0, i64 0
  store i32 0, ptr %84, align 4, !tbaa !23
  %85 = load i32, ptr %15, align 4, !tbaa !23
  %86 = icmp ugt i32 %85, 256
  br i1 %86, label %87, label %88

87:                                               ; preds = %79
  store i1 false, ptr %5, align 1
  store i32 1, ptr %14, align 4
  br label %126

88:                                               ; preds = %79
  %89 = load i16, ptr %10, align 2, !tbaa !66
  %90 = zext i16 %89 to i32
  %91 = load i32, ptr %15, align 4, !tbaa !23
  %92 = add i32 17, %91
  %93 = icmp ult i32 %90, %92
  br i1 %93, label %94, label %95

94:                                               ; preds = %88
  store i1 true, ptr %5, align 1
  store i32 1, ptr %14, align 4
  br label %126

95:                                               ; preds = %88
  call void @llvm.lifetime.start.p0(i64 4, ptr %17) #12
  store i32 0, ptr %17, align 4, !tbaa !23
  br label %96

96:                                               ; preds = %112, %95
  %97 = load i32, ptr %17, align 4, !tbaa !23
  %98 = load i32, ptr %15, align 4, !tbaa !23
  %99 = icmp ult i32 %97, %98
  br i1 %99, label %101, label %100

100:                                              ; preds = %96
  store i32 7, ptr %14, align 4
  call void @llvm.lifetime.end.p0(i64 4, ptr %17) #12
  br label %115

101:                                              ; preds = %96
  %102 = getelementptr inbounds nuw %struct.LibRaw_LjpegDecompressor, ptr %18, i32 0, i32 0
  %103 = call noundef zeroext i8 @_ZN12ByteStreamBE6get_u8Ev(ptr noundef nonnull align 8 dereferenceable(16) %102)
  %104 = zext i8 %103 to i32
  %105 = load ptr, ptr %9, align 8, !tbaa !64
  %106 = load i8, ptr %13, align 1, !tbaa !17
  %107 = zext i8 %106 to i64
  %108 = getelementptr inbounds nuw [256 x i32], ptr %105, i64 %107
  %109 = load i32, ptr %17, align 4, !tbaa !23
  %110 = sext i32 %109 to i64
  %111 = getelementptr inbounds [256 x i32], ptr %108, i64 0, i64 %110
  store i32 %104, ptr %111, align 4, !tbaa !23
  br label %112

112:                                              ; preds = %101
  %113 = load i32, ptr %17, align 4, !tbaa !23
  %114 = add nsw i32 %113, 1
  store i32 %114, ptr %17, align 4, !tbaa !23
  br label %96, !llvm.loop !69

115:                                              ; preds = %100
  %116 = load ptr, ptr %7, align 8, !tbaa !62
  %117 = load i8, ptr %13, align 1, !tbaa !17
  %118 = zext i8 %117 to i64
  %119 = getelementptr inbounds nuw i8, ptr %116, i64 %118
  store i8 1, ptr %119, align 1, !tbaa !24
  %120 = load i32, ptr %15, align 4, !tbaa !23
  %121 = add i32 17, %120
  %122 = load i16, ptr %10, align 2, !tbaa !66
  %123 = zext i16 %122 to i32
  %124 = sub i32 %123, %121
  %125 = trunc i32 %124 to i16
  store i16 %125, ptr %10, align 2, !tbaa !66
  store i32 0, ptr %14, align 4
  br label %126

126:                                              ; preds = %115, %94, %87
  call void @llvm.lifetime.end.p0(i64 4, ptr %15) #12
  br label %127

127:                                              ; preds = %126, %47, %42
  call void @llvm.lifetime.end.p0(i64 1, ptr %13) #12
  call void @llvm.lifetime.end.p0(i64 1, ptr %12) #12
  call void @llvm.lifetime.end.p0(i64 1, ptr %11) #12
  %128 = load i32, ptr %14, align 4
  switch i32 %128, label %131 [
    i32 0, label %129
  ]

129:                                              ; preds = %127
  br label %24, !llvm.loop !70

130:                                              ; preds = %24
  store i1 true, ptr %5, align 1
  store i32 1, ptr %14, align 4
  br label %131

131:                                              ; preds = %130, %127
  call void @llvm.lifetime.end.p0(i64 2, ptr %10) #12
  %132 = load i1, ptr %5, align 1
  ret i1 %132
}