; Function Attrs: mustprogress uwtable
define noundef zeroext i1 @_ZN24LibRaw_LjpegDecompressor9parse_dhtEPbPA17_jPA256_j(ptr noundef nonnull align 8 captures(none) dereferenceable(108) %0, ptr noundef writeonly captures(none) %1, ptr noundef writeonly captures(none) %2, ptr noundef writeonly captures(none) %3) local_unnamed_addr #1 align 2 {
  %5 = getelementptr inbounds nuw i8, ptr %0, i64 12
  %6 = load i32, ptr %5, align 4, !tbaa !6
  %7 = add i32 %6, 2
  %8 = getelementptr inbounds nuw i8, ptr %0, i64 8
  %9 = load i32, ptr %8, align 8, !tbaa !13
  %10 = icmp ugt i32 %7, %9
  br i1 %10, label %11, label %_ZN12ByteStreamBE7get_u16Ev.exit

11:                                               ; preds = %4
  %12 = tail call ptr @__cxa_allocate_exception(i64 4) #17
  store i32 1, ptr %12, align 16, !tbaa !36
  tail call void @__cxa_throw(ptr nonnull %12, ptr nonnull @_ZTIN12ByteStreamBE10ExceptionsE, ptr null) #19
  unreachable

_ZN12ByteStreamBE7get_u16Ev.exit:                 ; preds = %4
  %13 = load ptr, ptr %0, align 8, !tbaa !14
  %14 = zext i32 %6 to i64
  %15 = getelementptr inbounds nuw i8, ptr %13, i64 %14
  %16 = load i8, ptr %15, align 1, !tbaa !15
  %17 = add i32 %6, 1
  %18 = zext i32 %17 to i64
  %19 = getelementptr inbounds nuw i8, ptr %13, i64 %18
  %20 = load i8, ptr %19, align 1, !tbaa !15
  store i32 %7, ptr %5, align 4, !tbaa !6
  %21 = zext i8 %16 to i16
  %22 = shl nuw i16 %21, 8
  %23 = zext i8 %20 to i16
  %24 = or disjoint i16 %22, %23
  %25 = add i16 %24, -2
  %.not54 = icmp eq i16 %25, 0
  br i1 %.not54, label %.thread, label %.lr.ph56

.lr.ph56:                                         ; preds = %_ZN12ByteStreamBE7get_u16Ev.exit, %._crit_edge
  %.03655 = phi i16 [ %68, %._crit_edge ], [ %25, %_ZN12ByteStreamBE7get_u16Ev.exit ]
  %26 = zext i16 %.03655 to i32
  %27 = load i32, ptr %5, align 4, !tbaa !6
  %28 = load i32, ptr %8, align 8, !tbaa !13
  %.not.i = icmp ult i32 %27, %28
  br i1 %.not.i, label %_ZN12ByteStreamBE6get_u8Ev.exit, label %29

29:                                               ; preds = %.lr.ph56
  %30 = tail call ptr @__cxa_allocate_exception(i64 4) #17
  store i32 1, ptr %30, align 16, !tbaa !36
  tail call void @__cxa_throw(ptr nonnull %30, ptr nonnull @_ZTIN12ByteStreamBE10ExceptionsE, ptr null) #19
  unreachable

_ZN12ByteStreamBE6get_u8Ev.exit:                  ; preds = %.lr.ph56
  %31 = zext i32 %27 to i64
  %32 = getelementptr inbounds nuw i8, ptr %13, i64 %31
  %33 = load i8, ptr %32, align 1, !tbaa !15
  %34 = add nuw i32 %27, 1
  store i32 %34, ptr %5, align 4, !tbaa !6
  %35 = and i8 %33, 15
  %.not41 = icmp ugt i8 %33, 15
  %36 = icmp samesign ugt i8 %35, 3
  %or.cond = select i1 %.not41, i1 true, i1 %36
  br i1 %or.cond, label %.thread, label %.preheader49

.preheader49:                                     ; preds = %_ZN12ByteStreamBE6get_u8Ev.exit
  %37 = zext nneg i8 %35 to i64
  br label %41

38:                                               ; preds = %_ZN12ByteStreamBE6get_u8Ev.exit43
  %39 = getelementptr inbounds nuw [17 x i32], ptr %2, i64 %37
  store i32 0, ptr %39, align 4, !tbaa !71
  %40 = icmp ugt i32 %52, 256
  br i1 %40, label %.thread, label %53

41:                                               ; preds = %.preheader49, %_ZN12ByteStreamBE6get_u8Ev.exit43
  %indvars.iv = phi i64 [ 0, %.preheader49 ], [ %indvars.iv.next, %_ZN12ByteStreamBE6get_u8Ev.exit43 ]
  %.03251 = phi i32 [ 0, %.preheader49 ], [ %52, %_ZN12ByteStreamBE6get_u8Ev.exit43 ]
  %42 = load i32, ptr %5, align 4, !tbaa !6
  %43 = load i32, ptr %8, align 8, !tbaa !13
  %.not.i42 = icmp ult i32 %42, %43
  br i1 %.not.i42, label %_ZN12ByteStreamBE6get_u8Ev.exit43, label %44

44:                                               ; preds = %41
  %45 = tail call ptr @__cxa_allocate_exception(i64 4) #17
  store i32 1, ptr %45, align 16, !tbaa !36
  tail call void @__cxa_throw(ptr nonnull %45, ptr nonnull @_ZTIN12ByteStreamBE10ExceptionsE, ptr null) #19
  unreachable

_ZN12ByteStreamBE6get_u8Ev.exit43:                ; preds = %41
  %46 = zext i32 %42 to i64
  %47 = getelementptr inbounds nuw i8, ptr %13, i64 %46
  %48 = load i8, ptr %47, align 1, !tbaa !15
  %49 = add nuw i32 %42, 1
  store i32 %49, ptr %5, align 4, !tbaa !6
  %50 = zext i8 %48 to i32
  %indvars.iv.next = add nuw nsw i64 %indvars.iv, 1
  %51 = getelementptr inbounds nuw [17 x i32], ptr %2, i64 %37, i64 %indvars.iv.next
  store i32 %50, ptr %51, align 4, !tbaa !71
  %52 = add i32 %.03251, %50
  %exitcond.not = icmp eq i64 %indvars.iv.next, 16
  br i1 %exitcond.not, label %38, label %41, !llvm.loop !72

53:                                               ; preds = %38
  %54 = add nuw nsw i32 %52, 17
  %55 = icmp ugt i32 %54, %26
  br i1 %55, label %.thread, label %.preheader

.preheader:                                       ; preds = %53
  %.not62 = icmp eq i32 %52, 0
  br i1 %.not62, label %._crit_edge, label %.lr.ph.preheader

.lr.ph.preheader:                                 ; preds = %.preheader
  %wide.trip.count = zext nneg i32 %52 to i64
  br label %.lr.ph

.lr.ph:                                           ; preds = %.lr.ph.preheader, %_ZN12ByteStreamBE6get_u8Ev.exit45
  %indvars.iv64 = phi i64 [ 0, %.lr.ph.preheader ], [ %indvars.iv.next65, %_ZN12ByteStreamBE6get_u8Ev.exit45 ]
  %56 = load i32, ptr %5, align 4, !tbaa !6
  %57 = load i32, ptr %8, align 8, !tbaa !13
  %.not.i44 = icmp ult i32 %56, %57
  br i1 %.not.i44, label %_ZN12ByteStreamBE6get_u8Ev.exit45, label %58

58:                                               ; preds = %.lr.ph
  %59 = tail call ptr @__cxa_allocate_exception(i64 4) #17
  store i32 1, ptr %59, align 16, !tbaa !36
  tail call void @__cxa_throw(ptr nonnull %59, ptr nonnull @_ZTIN12ByteStreamBE10ExceptionsE, ptr null) #19
  unreachable

_ZN12ByteStreamBE6get_u8Ev.exit45:                ; preds = %.lr.ph
  %60 = zext i32 %56 to i64
  %61 = getelementptr inbounds nuw i8, ptr %13, i64 %60
  %62 = load i8, ptr %61, align 1, !tbaa !15
  %63 = add nuw i32 %56, 1
  store i32 %63, ptr %5, align 4, !tbaa !6
  %64 = zext i8 %62 to i32
  %65 = getelementptr inbounds nuw [256 x i32], ptr %3, i64 %37, i64 %indvars.iv64
  store i32 %64, ptr %65, align 4, !tbaa !71
  %indvars.iv.next65 = add nuw nsw i64 %indvars.iv64, 1
  %exitcond67.not = icmp eq i64 %indvars.iv.next65, %wide.trip.count
  br i1 %exitcond67.not, label %._crit_edge, label %.lr.ph, !llvm.loop !73

._crit_edge:                                      ; preds = %_ZN12ByteStreamBE6get_u8Ev.exit45, %.preheader
  %66 = getelementptr inbounds nuw i8, ptr %1, i64 %37
  store i8 1, ptr %66, align 1, !tbaa !54
  %67 = trunc nuw i32 %54 to i16
  %68 = sub i16 %.03655, %67
  %.not = icmp eq i16 %68, 0
  br i1 %.not, label %.thread, label %.lr.ph56, !llvm.loop !74

.thread:                                          ; preds = %._crit_edge, %_ZN12ByteStreamBE6get_u8Ev.exit, %38, %53, %_ZN12ByteStreamBE7get_u16Ev.exit
  %.3 = phi i1 [ true, %_ZN12ByteStreamBE7get_u16Ev.exit ], [ true, %53 ], [ false, %38 ], [ false, %_ZN12ByteStreamBE6get_u8Ev.exit ], [ true, %._crit_edge ]
  ret i1 %.3
}